Certificate:
    Data:
        Version: 3 (0x2)
        Serial Number: 4097 (0x1001)
        Signature Algorithm: md5WithRSAEncryption
        Issuer: C=TW, ST=Taiwan, L=Taipei, O=MSD, OU=HR, CN=Jennie
        Validity
            Not Before: Mar 15 15:40:24 2024 GMT
            Not After : Mar 15 15:40:24 2025 GMT
        Subject: C=TW, ST=Taiwan, O=MSD, OU=HR, CN=client
        Subject Public Key Info:
            Public Key Algorithm: rsaEncryption
                Public-Key: (4096 bit)
                Modulus:
                    00:df:6e:6e:e9:c2:a8:bc:93:90:fc:7b:a7:86:f3:
                    ff:29:1a:d7:55:fa:1e:0a:2e:3d:6d:b1:d1:cd:18:
                    4b:37:b1:31:24:93:0e:3d:7c:4f:d0:b6:ca:72:4d:
                    e6:ed:50:f3:b8:08:35:20:0c:82:a7:98:cb:1f:51:
                    b5:c6:ad:64:f7:09:f9:8f:0f:18:cc:05:b8:97:a0:
                    7b:61:c3:37:29:91:a8:23:90:f6:94:6f:db:49:ff:
                    52:d0:e9:06:1e:22:0b:a2:c6:77:a8:d5:c7:5f:4e:
                    0f:f2:e6:5c:bb:23:76:04:af:4c:8a:f9:bb:6a:11:
                    d1:24:67:1a:c8:ec:5c:2f:35:31:19:ed:90:5a:7d:
                    72:29:03:8e:11:1b:28:62:92:0d:5a:55:3a:aa:08:
                    54:b3:18:ef:4d:72:51:45:52:d5:95:21:1c:21:26:
                    66:71:ef:fe:0c:93:e1:ac:60:7b:11:fa:ce:3d:ed:
                    3f:48:53:68:85:16:e0:0c:6c:ec:53:d8:0f:db:c5:
                    99:8b:f0:7f:44:76:2b:6c:2b:a1:92:8b:88:02:50:
                    00:9c:5e:94:12:b2:07:34:64:f5:33:54:37:1e:c9:
                    00:83:14:5b:d7:da:77:c7:87:10:8e:bb:93:92:2a:
                    47:04:33:b0:6d:6d:bc:ed:8c:c0:4c:79:9c:29:3f:
                    df:f8:dc:ef:27:75:61:29:80:fc:32:f5:db:fc:9f:
                    ee:a1:4d:62:c6:b1:26:d6:1b:17:d3:44:06:a7:f2:
                    14:c6:41:d1:62:fb:74:a4:3b:29:b2:50:f9:6f:73:
                    4c:ed:32:99:80:5f:07:91:cb:d3:77:f0:b9:82:b7:
                    5d:68:64:b4:11:5c:c8:b7:be:a4:94:8c:72:64:5e:
                    0c:aa:0a:a5:39:48:69:e5:85:07:48:0c:09:d4:9f:
                    e8:5e:29:cb:ea:13:a5:9f:82:c6:f2:15:8a:56:12:
                    b3:1a:ea:67:63:3e:99:cf:0f:d9:79:c6:bf:49:49:
                    b8:be:41:1e:41:06:7b:0a:0e:83:0b:57:e6:d8:b5:
                    53:62:ea:a4:e8:70:97:56:c6:d6:4a:3d:95:96:e1:
                    b6:df:30:1a:22:c4:bf:36:91:a9:96:82:3f:52:f3:
                    87:c4:d1:86:7b:d7:5b:50:9a:fe:55:f2:7d:aa:da:
                    98:3e:64:b4:72:d3:4d:00:4c:c0:d6:40:64:df:e2:
                    21:4e:8c:19:46:be:38:6e:b9:40:cd:c2:51:98:65:
                    5d:b4:d8:a9:cd:48:91:14:ad:1d:42:02:d7:61:5a:
                    07:01:19:8d:cb:8a:35:00:7d:75:31:52:c3:c2:48:
                    5e:c8:03:15:f7:c0:54:d0:15:e1:21:47:f2:f9:3a:
                    9d:ca:f9
                Exponent: 65537 (0x10001)
        X509v3 extensions:
            X509v3 Basic Constraints: 
                CA:FALSE
            Netscape Comment: 
                OpenSSL Generated Certificate
            X509v3 Subject Key Identifier: 
                0C:57:63:A1:87:C7:31:A1:76:54:57:E7:D6:33:67:91:5F:9B:FA:E0
            X509v3 Authority Key Identifier: 
                keyid:1F:C3:B6:04:ED:CD:9D:7C:93:EB:90:60:D2:6E:46:C9:DF:5E:13:B8
                DirName:/C=TW/ST=Taiwan/L=Taipei/O=MSD/OU=HR/CN=Jennie
                serial:4E:D2:5A:1C:F7:A1:00:B9:CD:F6:FC:66:A3:E2:06:8A:06:94:B0:6F
    Signature Algorithm: md5WithRSAEncryption
    Signature Value:
        3a:0c:e5:f7:56:24:a5:79:ec:d4:d4:8f:bc:be:56:4d:ea:3c:
        ed:89:c2:5e:9f:51:0f:b4:b6:a8:8d:4b:b0:8e:46:a4:f7:01:
        71:84:6f:b6:a4:80:e3:95:77:a7:3f:92:81:32:e7:fc:f5:cf:
        e5:6f:a8:66:11:c7:57:3c:b0:92:1c:4e:43:ee:d0:2f:22:9a:
        4b:87:06:69:7f:d6:8b:53:bb:94:91:3a:b1:76:96:99:b7:85:
        bb:b1:71:87:69:1a:82:10:bd:75:59:f0:05:72:b9:20:7c:cd:
        be:f5:9f:7b:ca:bb:ca:b9:7b:ad:cc:88:9a:9a:01:8f:2c:a1:
        a5:d6:38:15:77:74:d2:af:ff:07:9c:c6:c4:aa:2d:b9:36:15:
        40:35:29:62:aa:38:d7:bf:8b:47:7a:2e:ee:2c:37:44:79:8a:
        b7:f7:81:c2:aa:60:33:e5:0e:e1:d4:72:fc:74:5a:68:96:fb:
        5b:a3:30:59:6d:1f:7e:23:4e:34:ae:fa:51:a7:38:ae:19:c9:
        d5:42:6c:94:19:17:cf:1e:a4:da:f5:5a:42:85:95:80:e9:39:
        6e:f8:b9:cc:f2:fc:66:cb:a2:32:72:06:44:8c:c5:89:6c:c3:
        0f:49:50:8b:a6:3d:f1:e1:d2:cf:50:99:39:ef:0f:2c:cc:c2:
        d1:21:6e:1c:92:e3:19:19:c9:ad:0d:6d:73:2e:4e:93:b6:09:
        af:a2:fc:ee:96:61:2c:e8:7e:34:48:88:9a:ba:41:bb:c9:19:
        0b:de:04:26:02:1a:07:cb:ad:75:97:23:de:3f:17:3f:bf:2c:
        61:73:99:6a:97:40:72:2a:62:3a:3d:d9:f2:b1:6c:5f:ce:6e:
        7f:73:0c:c8:82:b4:89:c8:24:c6:86:b0:06:f2:44:4c:57:26:
        19:27:0d:2f:1a:01:16:5a:3a:cf:bc:6a:ae:f9:9e:8f:d0:e5:
        fb:76:0b:26:2e:00:60:ec:02:00:2d:cd:dd:c7:67:7d:37:0b:
        2e:b8:7c:08:90:2b:e3:74:e2:06:20:df:52:d5:2a:fe:41:fa:
        55:6d:27:31:21:61:6a:2a:57:4e:4d:5f:5d:b1:68:2c:e2:8d:
        52:a9:18:b3:d4:6d:88:7f:dd:50:ed:ab:e4:e4:37:49:23:ca:
        3e:1b:75:68:21:ab:c1:82:9e:0f:58:04:c2:50:ad:7e:3e:59:
        ea:dc:fc:11:68:83:c2:54:ee:46:57:cd:e3:19:4a:ea:60:26:
        bc:1b:36:f6:dc:fc:4f:22:fa:32:8a:33:95:6c:8f:a7:3c:04:
        30:92:0b:90:bc:0c:0c:57:ee:90:12:b8:49:33:d9:2c:52:9b:
        8d:90:a2:f2:ba:8b:11:33
-----BEGIN CERTIFICATE-----
MIIGGDCCBACgAwIBAgICEAEwDQYJKoZIhvcNAQEEBQAwWzELMAkGA1UEBhMCVFcx
DzANBgNVBAgMBlRhaXdhbjEPMA0GA1UEBwwGVGFpcGVpMQwwCgYDVQQKDANNU0Qx
CzAJBgNVBAsMAkhSMQ8wDQYDVQQDDAZKZW5uaWUwHhcNMjQwMzE1MTU0MDI0WhcN
MjUwMzE1MTU0MDI0WjBKMQswCQYDVQQGEwJUVzEPMA0GA1UECAwGVGFpd2FuMQww
CgYDVQQKDANNU0QxCzAJBgNVBAsMAkhSMQ8wDQYDVQQDDAZjbGllbnQwggIiMA0G
CSqGSIb3DQEBAQUAA4ICDwAwggIKAoICAQDfbm7pwqi8k5D8e6eG8/8pGtdV+h4K
Lj1tsdHNGEs3sTEkkw49fE/QtspyTebtUPO4CDUgDIKnmMsfUbXGrWT3CfmPDxjM
BbiXoHthwzcpkagjkPaUb9tJ/1LQ6QYeIguixneo1cdfTg/y5ly7I3YEr0yK+btq
EdEkZxrI7FwvNTEZ7ZBafXIpA44RGyhikg1aVTqqCFSzGO9NclFFUtWVIRwhJmZx
7/4Mk+GsYHsR+s497T9IU2iFFuAMbOxT2A/bxZmL8H9EditsK6GSi4gCUACcXpQS
sgc0ZPUzVDceyQCDFFvX2nfHhxCOu5OSKkcEM7BtbbztjMBMeZwpP9/43O8ndWEp
gPwy9dv8n+6hTWLGsSbWGxfTRAan8hTGQdFi+3SkOymyUPlvc0ztMpmAXweRy9N3
8LmCt11oZLQRXMi3vqSUjHJkXgyqCqU5SGnlhQdIDAnUn+heKcvqE6WfgsbyFYpW
ErMa6mdjPpnPD9l5xr9JSbi+QR5BBnsKDoMLV+bYtVNi6qTocJdWxtZKPZWW4bbf
MBoixL82kamWgj9S84fE0YZ711tQmv5V8n2q2pg+ZLRy000ATMDWQGTf4iFOjBlG
vjhuuUDNwlGYZV202KnNSJEUrR1CAtdhWgcBGY3LijUAfXUxUsPCSF7IAxX3wFTQ
FeEhR/L5Op3K+QIDAQABo4H2MIHzMAkGA1UdEwQCMAAwLAYJYIZIAYb4QgENBB8W
HU9wZW5TU0wgR2VuZXJhdGVkIENlcnRpZmljYXRlMB0GA1UdDgQWBBQMV2Ohh8cx
oXZUV+fWM2eRX5v64DCBmAYDVR0jBIGQMIGNgBQfw7YE7c2dfJPrkGDSbkbJ314T
uKFfpF0wWzELMAkGA1UEBhMCVFcxDzANBgNVBAgMBlRhaXdhbjEPMA0GA1UEBwwG
VGFpcGVpMQwwCgYDVQQKDANNU0QxCzAJBgNVBAsMAkhSMQ8wDQYDVQQDDAZKZW5u
aWWCFE7SWhz3oQC5zfb8ZqPiBooGlLBvMA0GCSqGSIb3DQEBBAUAA4ICAQA6DOX3
ViSleezU1I+8vlZN6jzticJen1EPtLaojUuwjkak9wFxhG+2pIDjlXenP5KBMuf8
9c/lb6hmEcdXPLCSHE5D7tAvIppLhwZpf9aLU7uUkTqxdpaZt4W7sXGHaRqCEL11
WfAFcrkgfM2+9Z97yrvKuXutzIiamgGPLKGl1jgVd3TSr/8HnMbEqi25NhVANSli
qjjXv4tHei7uLDdEeYq394HCqmAz5Q7h1HL8dFpolvtbozBZbR9+I040rvpRpziu
GcnVQmyUGRfPHqTa9VpChZWA6Tlu+LnM8vxmy6IycgZEjMWJbMMPSVCLpj3x4dLP
UJk57w8szMLRIW4ckuMZGcmtDW1zLk6TtgmvovzulmEs6H40SIiaukG7yRkL3gQm
AhoHy611lyPePxc/vyxhc5lql0ByKmI6PdnysWxfzm5/cwzIgrSJyCTGhrAG8kRM
VyYZJw0vGgEWWjrPvGqu+Z6P0OX7dgsmLgBg7AIALc3dx2d9NwsuuHwIkCvjdOIG
IN9S1Sr+QfpVbScxIWFqKldOTV9dsWgs4o1SqRiz1G2If91Q7avk5DdJI8o+G3Vo
IavBgp4PWATCUK1+Plnq3PwRaIPCVO5GV83jGUrqYCa8Gzb23PxPIvoyijOVbI+n
PAQwkguQvAwMV+6QErhJM9ksUpuNkKLyuosRMw==
-----END CERTIFICATE-----
