Certificate:
    Data:
        Version: 3 (0x2)
        Serial Number: 4096 (0x1000)
        Signature Algorithm: md5WithRSAEncryption
        Issuer: C=TW, ST=Taiwan, L=Taipei, O=MSD, OU=HR, CN=Jennie
        Validity
            Not Before: Mar 15 15:40:10 2024 GMT
            Not After : Mar 15 15:40:10 2025 GMT
        Subject: C=TW, ST=Taiwan, O=MSD, OU=HR, CN=Server
        Subject Public Key Info:
            Public Key Algorithm: rsaEncryption
                Public-Key: (4096 bit)
                Modulus:
                    00:dd:aa:e2:3e:2e:02:e1:5e:34:89:81:e5:31:a8:
                    61:8d:f2:b2:7b:88:d0:c3:b9:42:7f:45:f8:6d:49:
                    bf:4d:dd:38:32:af:fc:ce:b9:05:1b:f4:2d:2f:46:
                    c9:cd:bc:30:ac:c1:ed:b2:5a:64:1b:ce:91:61:b2:
                    f2:a0:bc:5a:03:3f:46:20:1a:9d:d0:33:d7:63:4b:
                    ac:87:34:f8:58:47:a8:80:ca:44:00:f0:9e:07:a2:
                    3c:df:ec:08:81:ea:63:04:f0:9b:f5:ec:3d:1f:fe:
                    41:cb:1b:c1:b7:77:e9:c9:bf:7d:16:15:23:e0:c6:
                    2f:6d:a2:16:e2:b5:15:35:19:5c:32:96:48:f6:6a:
                    b5:ec:fd:29:5a:05:c1:4b:9f:69:db:e2:78:2b:32:
                    e9:25:13:bf:ef:d7:55:85:2a:67:94:e1:80:1a:e9:
                    0e:cf:92:d6:d3:2f:c7:59:5c:fd:c4:fa:00:6a:a4:
                    43:e6:76:da:47:7e:8d:bd:a3:37:86:76:cf:de:a8:
                    53:ac:ee:10:56:55:15:63:7f:b9:28:e1:9e:b5:c1:
                    67:37:db:0a:05:b3:13:28:23:6f:7b:0a:7b:d7:02:
                    ec:e0:9b:e5:cc:e0:1c:5e:f4:d8:00:48:be:bf:3e:
                    d8:f3:59:20:0f:48:7d:24:7c:5f:3e:bc:df:f0:c8:
                    77:73:fa:ce:51:39:5c:96:3b:6a:48:cb:5c:53:c3:
                    51:7a:1d:e6:95:f1:e1:4c:42:8a:98:df:7d:75:e9:
                    41:09:39:82:1d:77:51:67:a9:42:5c:00:61:f4:51:
                    e2:ce:e8:3d:81:07:dd:ba:d5:63:11:8a:1e:2a:e5:
                    95:55:3c:ad:1b:d8:1b:9f:2e:c8:fd:97:b8:d3:f2:
                    b8:19:1e:f7:b6:6a:50:74:6d:95:14:ac:4e:1e:f7:
                    3e:5b:16:14:3b:84:e6:11:c9:d5:08:83:dc:cc:7e:
                    25:58:33:e4:60:e4:95:ac:d3:d0:dc:d8:c1:f3:7c:
                    cd:a5:9d:ee:03:2b:c9:05:91:4a:7e:6e:41:a7:2a:
                    0a:41:10:78:1a:4e:e0:83:af:30:d6:9d:04:75:96:
                    b7:56:34:c3:1c:01:85:8f:3f:12:48:99:3f:ea:74:
                    2d:ed:25:81:38:6b:24:2e:58:33:1b:df:7b:69:79:
                    22:0d:b5:3c:55:60:33:c9:db:41:ca:d7:76:1c:28:
                    85:b1:81:49:de:76:22:46:70:e7:e8:41:4f:8a:81:
                    59:85:9e:a7:7f:aa:81:26:e0:77:fe:d8:d0:f8:0d:
                    dc:d7:2b:97:82:50:51:5b:18:ba:3a:f0:ed:78:a9:
                    1c:f0:c7:35:be:56:de:c1:d7:97:4b:ea:30:f2:18:
                    a2:81:8b
                Exponent: 65537 (0x10001)
        X509v3 extensions:
            X509v3 Basic Constraints: 
                CA:FALSE
            Netscape Comment: 
                OpenSSL Generated Certificate
            X509v3 Subject Key Identifier: 
                19:A8:E9:96:2F:48:B7:7B:D6:9C:EA:B3:16:57:5D:99:5D:15:24:8D
            X509v3 Authority Key Identifier: 
                keyid:1F:C3:B6:04:ED:CD:9D:7C:93:EB:90:60:D2:6E:46:C9:DF:5E:13:B8
                DirName:/C=TW/ST=Taiwan/L=Taipei/O=MSD/OU=HR/CN=Jennie
                serial:4E:D2:5A:1C:F7:A1:00:B9:CD:F6:FC:66:A3:E2:06:8A:06:94:B0:6F
    Signature Algorithm: md5WithRSAEncryption
    Signature Value:
        0a:4e:cd:7e:62:37:4b:da:0b:5f:86:4c:3f:15:54:8a:65:f9:
        fd:11:fb:39:da:9d:58:39:02:76:7d:82:c6:50:33:65:87:06:
        54:83:07:ab:93:ac:a4:31:87:6b:6c:bd:14:83:29:76:8f:b5:
        b7:8f:14:f4:71:3a:78:4b:41:07:56:a0:af:d2:09:7a:01:af:
        d2:5d:7f:59:f7:90:53:2b:6b:ef:88:6c:6e:c2:b3:bf:19:98:
        bc:06:fa:75:07:14:cc:6e:67:1d:89:c2:3d:a1:65:39:ab:b9:
        8a:e3:ea:50:3c:b7:e1:5a:2f:f0:0e:2d:2b:a9:ef:ef:08:d0:
        e5:64:a7:57:71:c7:5a:bb:2a:58:15:fa:f0:2a:b9:58:40:9f:
        ef:fd:53:61:e7:fb:a8:84:5c:a6:74:0a:0b:11:4f:15:04:27:
        6f:bb:f7:9b:56:dd:f8:fb:ed:5e:5e:0f:f6:f1:d7:83:11:16:
        90:28:17:b4:4f:87:d8:08:0c:24:27:1f:88:b4:fc:97:c6:61:
        7d:b3:43:55:fa:6d:a7:74:fa:e3:7d:6c:a4:26:29:e5:fe:a4:
        7a:16:91:fd:fa:d8:f3:b1:01:98:d4:88:8b:be:0b:62:7a:e7:
        9a:a4:a3:01:7f:7a:22:53:4b:b2:f8:0b:6d:c5:f9:eb:2f:90:
        89:13:47:08:cc:61:fe:9e:8d:42:52:3a:60:05:ff:6c:18:33:
        a5:3a:19:69:d3:ac:c1:c2:6b:57:15:22:d7:65:11:97:29:51:
        ed:00:69:9b:38:31:9f:47:c4:c5:e1:f2:63:5f:a6:c5:01:e3:
        49:83:9d:b2:e2:da:38:27:4c:df:8e:fb:52:97:ba:e0:df:9a:
        0a:af:f3:5b:e7:ea:2d:0b:07:89:b1:e8:c4:3c:53:22:36:96:
        80:2b:af:fe:cd:e1:99:bc:69:f9:30:6a:85:09:6c:d1:74:52:
        cc:61:d5:af:6a:8f:85:b3:6a:dc:7d:0e:10:a0:46:85:47:24:
        83:0d:fa:a1:b2:f9:ae:0a:2f:cb:d3:3c:74:9f:f3:64:ed:5b:
        6d:40:ae:19:f9:5a:d8:f8:de:07:cf:f2:10:92:e8:61:12:a3:
        c6:2b:21:9b:71:7f:b0:37:6a:a4:18:77:b4:cf:09:50:22:d1:
        b0:e5:00:1e:53:3e:5f:68:c6:82:82:d3:c8:cb:5a:87:1e:93:
        71:ef:57:10:a0:e3:b4:aa:bf:d2:55:09:4d:21:7a:bb:fa:ca:
        6b:da:84:7a:ba:7c:50:fa:18:f6:9b:ea:d3:d2:ba:a5:bb:76:
        f2:73:8b:a5:17:7d:35:f1:44:09:71:10:a0:47:eb:56:71:11:
        82:dc:c2:b8:4b:e7:c5:f0
-----BEGIN CERTIFICATE-----
MIIGGDCCBACgAwIBAgICEAAwDQYJKoZIhvcNAQEEBQAwWzELMAkGA1UEBhMCVFcx
DzANBgNVBAgMBlRhaXdhbjEPMA0GA1UEBwwGVGFpcGVpMQwwCgYDVQQKDANNU0Qx
CzAJBgNVBAsMAkhSMQ8wDQYDVQQDDAZKZW5uaWUwHhcNMjQwMzE1MTU0MDEwWhcN
MjUwMzE1MTU0MDEwWjBKMQswCQYDVQQGEwJUVzEPMA0GA1UECAwGVGFpd2FuMQww
CgYDVQQKDANNU0QxCzAJBgNVBAsMAkhSMQ8wDQYDVQQDDAZTZXJ2ZXIwggIiMA0G
CSqGSIb3DQEBAQUAA4ICDwAwggIKAoICAQDdquI+LgLhXjSJgeUxqGGN8rJ7iNDD
uUJ/RfhtSb9N3Tgyr/zOuQUb9C0vRsnNvDCswe2yWmQbzpFhsvKgvFoDP0YgGp3Q
M9djS6yHNPhYR6iAykQA8J4Hojzf7AiB6mME8Jv17D0f/kHLG8G3d+nJv30WFSPg
xi9tohbitRU1GVwylkj2arXs/SlaBcFLn2nb4ngrMuklE7/v11WFKmeU4YAa6Q7P
ktbTL8dZXP3E+gBqpEPmdtpHfo29ozeGds/eqFOs7hBWVRVjf7ko4Z61wWc32woF
sxMoI297CnvXAuzgm+XM4Bxe9NgASL6/PtjzWSAPSH0kfF8+vN/wyHdz+s5ROVyW
O2pIy1xTw1F6HeaV8eFMQoqY33116UEJOYIdd1FnqUJcAGH0UeLO6D2BB9261WMR
ih4q5ZVVPK0b2BufLsj9l7jT8rgZHve2alB0bZUUrE4e9z5bFhQ7hOYRydUIg9zM
fiVYM+Rg5JWs09Dc2MHzfM2lne4DK8kFkUp+bkGnKgpBEHgaTuCDrzDWnQR1lrdW
NMMcAYWPPxJImT/qdC3tJYE4ayQuWDMb33tpeSINtTxVYDPJ20HK13YcKIWxgUne
diJGcOfoQU+KgVmFnqd/qoEm4Hf+2ND4DdzXK5eCUFFbGLo68O14qRzwxzW+Vt7B
15dL6jDyGKKBiwIDAQABo4H2MIHzMAkGA1UdEwQCMAAwLAYJYIZIAYb4QgENBB8W
HU9wZW5TU0wgR2VuZXJhdGVkIENlcnRpZmljYXRlMB0GA1UdDgQWBBQZqOmWL0i3
e9ac6rMWV12ZXRUkjTCBmAYDVR0jBIGQMIGNgBQfw7YE7c2dfJPrkGDSbkbJ314T
uKFfpF0wWzELMAkGA1UEBhMCVFcxDzANBgNVBAgMBlRhaXdhbjEPMA0GA1UEBwwG
VGFpcGVpMQwwCgYDVQQKDANNU0QxCzAJBgNVBAsMAkhSMQ8wDQYDVQQDDAZKZW5u
aWWCFE7SWhz3oQC5zfb8ZqPiBooGlLBvMA0GCSqGSIb3DQEBBAUAA4ICAQAKTs1+
YjdL2gtfhkw/FVSKZfn9Efs52p1YOQJ2fYLGUDNlhwZUgwerk6ykMYdrbL0Ugyl2
j7W3jxT0cTp4S0EHVqCv0gl6Aa/SXX9Z95BTK2vviGxuwrO/GZi8Bvp1BxTMbmcd
icI9oWU5q7mK4+pQPLfhWi/wDi0rqe/vCNDlZKdXccdauypYFfrwKrlYQJ/v/VNh
5/uohFymdAoLEU8VBCdvu/ebVt34++1eXg/28deDERaQKBe0T4fYCAwkJx+ItPyX
xmF9s0NV+m2ndPrjfWykJinl/qR6FpH9+tjzsQGY1IiLvgtieueapKMBf3oiU0uy
+AttxfnrL5CJE0cIzGH+no1CUjpgBf9sGDOlOhlp06zBwmtXFSLXZRGXKVHtAGmb
ODGfR8TF4fJjX6bFAeNJg52y4to4J0zfjvtSl7rg35oKr/Nb5+otCweJsejEPFMi
NpaAK6/+zeGZvGn5MGqFCWzRdFLMYdWvao+Fs2rcfQ4QoEaFRySDDfqhsvmuCi/L
0zx0n/Nk7VttQK4Z+VrY+N4Hz/IQkuhhEqPGKyGbcX+wN2qkGHe0zwlQItGw5QAe
Uz5faMaCgtPIy1qHHpNx71cQoOO0qr/SVQlNIXq7+spr2oR6unxQ+hj2m+rT0rql
u3byc4ulF3018UQJcRCgR+tWcRGC3MK4S+fF8A==
-----END CERTIFICATE-----
